; Function Attrs: mustprogress nofree norecurse nosync nounwind willreturn memory(readwrite, argmem: none, inaccessiblemem: none) uwtable
define dso_local range(i32 -1, 1) i32 @sapi_register_input_filter(ptr noundef %0, ptr noundef %1) local_unnamed_addr #12 {
  %3 = load i8, ptr getelementptr inbounds nuw (i8, ptr @sapi_globals, i64 436), align 4, !tbaa !123, !range !90, !noundef !80
  %4 = trunc nuw i8 %3 to i1
  %5 = load ptr, ptr getelementptr inbounds nuw (i8, ptr @executor_globals, i64 512), align 8
  %6 = icmp ne ptr %5, null
  %or.cond = select i1 %4, i1 %6, i1 false
  br i1 %or.cond, label %8, label %7

7:                                                ; preds = %2
  store ptr %0, ptr getelementptr inbounds nuw (i8, ptr @sapi_module, i64 232), align 8, !tbaa !149
  store ptr %1, ptr getelementptr inbounds nuw (i8, ptr @sapi_module, i64 272), align 8, !tbaa !112
  br label %8

8:                                                ; preds = %2, %7
  %.0 = phi i32 [ 0, %7 ], [ -1, %2 ]
  ret i32 %.0
}